(inet_model
net_model
p1
((dp2
I20000
(inet_model
node_model
p3
(S'/home/lane/mos/mantis-unstable/src/tools/tenodera/binaries/flood.elf'
p4
I20000
(I379
I251
tp5
tbsI20001
(inet_model
node_model
p6
(S'/home/lane/mos/mantis-unstable/src/tools/tenodera/binaries/flood.elf'
p7
I20001
(I419
I212
tp8
tbsI20002
(inet_model
node_model
p9
(S'/home/lane/mos/mantis-unstable/src/tools/tenodera/binaries/flood.elf'
p10
I20002
(I324
I269
tp11
tbsI20003
(inet_model
node_model
p12
(S'/home/lane/mos/mantis-unstable/src/tools/tenodera/binaries/flood.elf'
p13
I20003
(I386
I308
tp14
tbsI20004
(inet_model
node_model
p15
(S'/home/lane/mos/mantis-unstable/src/tools/tenodera/binaries/flood.elf'
p16
I20004
(I333
I327
tp17
tbsI20005
(inet_model
node_model
p18
(S'/home/lane/mos/mantis-unstable/src/tools/tenodera/binaries/flood.elf'
p19
I20005
(I276
I246
tp20
tbsI20006
(inet_model
node_model
p21
(S'/home/lane/mos/mantis-unstable/src/tools/tenodera/binaries/flood.elf'
p22
I20006
(I469
I189
tp23
tbsI20007
(inet_model
node_model
p24
(S'/home/lane/mos/mantis-unstable/src/tools/tenodera/binaries/flood.elf'
p25
I20007
(I449
I256
tp26
tbsI20008
(inet_model
node_model
p27
(S'/home/lane/mos/mantis-unstable/src/tools/tenodera/binaries/flood.elf'
p28
I20008
(I275
I315
tp29
tbsI20009
(inet_model
node_model
p30
(S'/home/lane/mos/mantis-unstable/src/tools/tenodera/binaries/flood.elf'
p31
I20009
(I504
I258
tp32
tbsI20010
(inet_model
node_model
p33
(S'/home/lane/mos/mantis-unstable/src/tools/tenodera/binaries/flood.elf'
p34
I20010
(I431
I309
tp35
tbsI20011
(inet_model
node_model
p36
(S'/home/lane/mos/mantis-unstable/src/tools/tenodera/binaries/flood.elf'
p37
I20011
(I295
I369
tp38
tbsI20012
(inet_model
node_model
p39
(S'/home/lane/mos/mantis-unstable/src/tools/tenodera/binaries/flood.elf'
p40
I20012
(I375
I365
tp41
tbsI20013
(inet_model
node_model
p42
(S'/home/lane/mos/mantis-unstable/src/tools/tenodera/binaries/flood.elf'
p43
I20013
(I486
I304
tp44
tbsI20014
(inet_model
node_model
p45
(S'/home/lane/mos/mantis-unstable/src/tools/tenodera/binaries/flood.elf'
p46
I20014
(I520
I194
tp47
tbsI20015
(inet_model
node_model
p48
(S'/home/lane/mos/mantis-unstable/src/tools/tenodera/binaries/flood.elf'
p49
I20015
(I227
I242
tp50
tbsI20016
(inet_model
node_model
p51
(S'/home/lane/mos/mantis-unstable/src/tools/tenodera/binaries/flood.elf'
p52
I20016
(I269
I190
tp53
tbsI20017
(inet_model
node_model
p54
(S'/home/lane/mos/mantis-unstable/src/tools/tenodera/binaries/flood.elf'
p55
I20017
(I337
I217
tp56
tbsI20018
(inet_model
node_model
p57
(S'/home/lane/mos/mantis-unstable/src/tools/tenodera/binaries/flood.elf'
p58
I20018
(I463
I349
tp59
tbsI20019
(inet_model
node_model
p60
(S'/home/lane/mos/mantis-unstable/src/tools/tenodera/binaries/flood.elf'
p61
I20019
(I399
I407
tp62
tbsI20020
(inet_model
node_model
p63
(S'/home/lane/mos/mantis-unstable/src/tools/tenodera/binaries/flood.elf'
p64
I20020
(I475
I397
tp65
tbsI20021
(inet_model
node_model
p66
(S'/home/lane/mos/mantis-unstable/src/tools/tenodera/binaries/flood.elf'
p67
I20021
(I425
I448
tp68
tbsI20022
(inet_model
node_model
p69
(S'/home/lane/mos/mantis-unstable/src/tools/tenodera/binaries/flood.elf'
p70
I20022
(I540
I145
tp71
tbsI20023
(inet_model
node_model
p72
(S'/home/lane/mos/mantis-unstable/src/tools/tenodera/binaries/flood.elf'
p73
I20023
(I222
I289
tp74
tbsI20024
(inet_model
node_model
p75
(S'/home/lane/mos/mantis-unstable/src/tools/tenodera/binaries/flood.elf'
p76
I20024
(lp77
I462
aI481
atbsI20025
(inet_model
node_model
p78
(S'/home/lane/mos/mantis-unstable/src/tools/tenodera/binaries/flood.elf'
p79
I20025
(lp80
I502
aI457
atbsI20026
(inet_model
node_model
p81
(S'/home/lane/mos/mantis-unstable/src/tools/tenodera/binaries/flood.elf'
p82
I20026
(lp83
I543
aI483
atbsI20027
(inet_model
node_model
p84
(S'/home/lane/mos/mantis-unstable/src/tools/tenodera/binaries/flood.elf'
p85
I20027
(lp86
I580
aI458
atbsI20028
(inet_model
node_model
p87
(S'/home/lane/mos/mantis-unstable/src/tools/tenodera/binaries/flood.elf'
p88
I20028
(lp89
I615
aI485
atbsI20029
(inet_model
node_model
p90
(S'/home/lane/mos/mantis-unstable/src/tools/tenodera/binaries/flood.elf'
p91
I20029
(lp92
I648
aI462
atbsI20030
(inet_model
node_model
p93
(S'/home/lane/mos/mantis-unstable/src/tools/tenodera/binaries/flood.elf'
p94
I20030
(lp95
I684
aI483
atbsI20031
(inet_model
node_model
p96
(S'/home/lane/mos/mantis-unstable/src/tools/tenodera/binaries/flood.elf'
p97
I20031
(lp98
I715
aI464
atbsI20032
(inet_model
node_model
p99
(S'/home/lane/mos/mantis-unstable/src/tools/tenodera/binaries/flood.elf'
p100
I20032
(lp101
I750
aI480
atbsI20033
(inet_model
node_model
p102
(S'/home/lane/mos/mantis-unstable/src/tools/tenodera/binaries/flood.elf'
p103
I20033
(lp104
I772
aI438
atbsI20034
(inet_model
node_model
p105
(S'/home/lane/mos/mantis-unstable/src/tools/tenodera/binaries/flood.elf'
p106
I20034
(lp107
I746
aI406
atbsI20035
(inet_model
node_model
p108
(S'/home/lane/mos/mantis-unstable/src/tools/tenodera/binaries/flood.elf'
p109
I20035
(lp110
I715
aI379
atbsI20036
(inet_model
node_model
p111
(S'/home/lane/mos/mantis-unstable/src/tools/tenodera/binaries/flood.elf'
p112
I20036
(lp113
I749
aI343
atbsI20037
(inet_model
node_model
p114
(S'/home/lane/mos/mantis-unstable/src/tools/tenodera/binaries/flood.elf'
p115
I20037
(lp116
I715
aI312
atbsI20038
(inet_model
node_model
p117
(S'/home/lane/mos/mantis-unstable/src/tools/tenodera/binaries/flood.elf'
p118
I20038
(lp119
I750
aI283
atbsI20039
(inet_model
node_model
p120
(S'/home/lane/mos/mantis-unstable/src/tools/tenodera/binaries/flood.elf'
p121
I20039
(lp122
I718
aI249
atbsNI20040
tb.